Certificate:
    Data:
        Version: 3 (0x2)
        Serial Number:
            ff:2a:90:f9:2c:cd:67:f3
        Signature Algorithm: sha1WithRSAEncryption
        Issuer: C=EU, O=Testing Organization, CN=localhost ca
        Validity
            Not Before: Jan 16 12:23:24 2012 GMT
            Not After : Sep 24 12:23:24 2025 GMT
        Subject: C=EU, L=Testing City, O=Testing Organization, CN=localhost
        Subject Public Key Info:
            Public Key Algorithm: rsaEncryption
            RSA Public Key: (1024 bit)
                Modulus (1024 bit):
                    00:b0:8a:80:b1:35:00:2a:5c:92:6b:ec:e0:a2:6e:
                    93:68:23:65:df:39:21:05:22:d0:ff:d8:68:1e:da:
                    83:aa:ad:b7:fd:db:07:76:3d:96:b5:12:74:75:f2:
                    3b:e6:19:12:1e:19:07:64:2a:40:ab:ac:35:2b:b3:
                    7a:92:a4:38:43:86:6f:c8:60:b9:fe:a9:0b:a7:d7:
                    de:3f:22:b4:67:e9:da:83:6e:4f:5c:c4:92:be:4d:
                    cc:a2:f7:ac:20:75:44:dc:f6:30:fe:df:71:74:63:
                    f0:93:ec:ab:07:26:6a:c0:1b:6c:b1:a6:d1:7c:84:
                    b8:ee:de:eb:b6:2e:33:4a:6d
                Exponent: 65537 (0x10001)
        X509v3 extensions:
            X509v3 Basic Constraints: 
                CA:FALSE
            Netscape Comment: 
                OpenSSL Generated Certificate
            X509v3 Subject Key Identifier: 
                4C:E9:20:DC:40:79:94:4B:77:62:3D:89:2A:1A:13:19:AD:AF:54:24
            X509v3 Authority Key Identifier: 
                keyid:FD:24:1A:95:9F:71:84:00:E5:A6:F2:33:16:D3:80:7E:D0:39:0E:32

    Signature Algorithm: sha1WithRSAEncryption
        6c:6c:ed:d6:28:95:7f:b8:13:65:45:68:54:4f:51:33:e0:e2:
        40:a0:9e:12:3f:64:e3:3a:33:ba:fc:a3:7f:c6:52:57:30:66:
        6d:27:f9:46:53:8d:52:be:ef:9a:a2:70:11:16:7e:43:eb:db:
        4f:fa:55:90:cc:69:00:ef:4f:88:a4:42:72:f6:5f:65:4b:ed:
        12:d8:73:5a:3f:c1:a2:88:27:bd:2e:3f:2d:66:d6:f2:6a:f5:
        77:f2:d8:85:89:d2:c8:73:f0:b4:27:75:5c:52:e5:2b:42:87:
        35:2e:a1:4a:0d:3d:43:4e:20:23:ec:d5:b4:82:d5:00:ff:76:
        7c:80
-----BEGIN CERTIFICATE-----
MIICkzCCAfygAwIBAgIJAP8qkPkszWfzMA0GCSqGSIb3DQEBBQUAMEMxCzAJBgNV
BAYTAkVVMR0wGwYDVQQKExRUZXN0aW5nIE9yZ2FuaXphdGlvbjEVMBMGA1UEAxMM
bG9jYWxob3N0IGNhMB4XDTEyMDExNjEyMjMyNFoXDTI1MDkyNDEyMjMyNFowVzEL
MAkGA1UEBhMCRVUxFTATBgNVBAcTDFRlc3RpbmcgQ2l0eTEdMBsGA1UEChMUVGVz
dGluZyBPcmdhbml6YXRpb24xEjAQBgNVBAMTCWxvY2FsaG9zdDCBnzANBgkqhkiG
9w0BAQEFAAOBjQAwgYkCgYEAsIqAsTUAKlySa+zgom6TaCNl3zkhBSLQ/9hoHtqD
qq23/dsHdj2WtRJ0dfI75hkSHhkHZCpAq6w1K7N6kqQ4Q4ZvyGC5/qkLp9fePyK0
Z+nag25PXMSSvk3MovesIHVE3PYw/t9xdGPwk+yrByZqwBtssabRfIS47t7rti4z
Sm0CAwEAAaN7MHkwCQYDVR0TBAIwADAsBglghkgBhvhCAQ0EHxYdT3BlblNTTCBH
ZW5lcmF0ZWQgQ2VydGlmaWNhdGUwHQYDVR0OBBYEFEzpINxAeZRLd2I9iSoaExmt
r1QkMB8GA1UdIwQYMBaAFP0kGpWfcYQA5abyMxbTgH7QOQ4yMA0GCSqGSIb3DQEB
BQUAA4GBAGxs7dYolX+4E2VFaFRPUTPg4kCgnhI/ZOM6M7r8o3/GUlcwZm0n+UZT
jVK+75qicBEWfkPr20/6VZDMaQDvT4ikQnL2X2VL7RLYc1o/waKIJ70uPy1m1vJq
9Xfy2IWJ0shz8LQndVxS5StChzUuoUoNPUNOICPs1bSC1QD/dnyA
-----END CERTIFICATE-----
